; Function Attrs: nofree nounwind memory(write, argmem: readwrite, inaccessiblemem: readwrite) uwtable
define void @Abc_ZddManCreatePerms(ptr noundef captures(none) initializes((12, 16), (72, 96)) %0, i32 noundef %1) local_unnamed_addr #5 {
  %3 = getelementptr inbounds nuw i8, ptr %0, i64 12
  store i32 %1, ptr %3, align 4, !tbaa !34
  %4 = load i32, ptr %0, align 8, !tbaa !29
  %5 = sext i32 %4 to i64
  %6 = shl nsw i64 %5, 2
  %7 = tail call noalias ptr @malloc(i64 noundef %6) #22
  tail call void @llvm.memset.p0.i64(ptr align 1 %7, i8 -1, i64 %6, i1 false)
  %8 = getelementptr inbounds nuw i8, ptr %0, i64 72
  store ptr %7, ptr %8, align 8, !tbaa !35
  %9 = tail call noalias ptr @malloc(i64 noundef %6) #22
  tail call void @llvm.memset.p0.i64(ptr align 1 %9, i8 -1, i64 %6, i1 false)
  %10 = getelementptr inbounds nuw i8, ptr %0, i64 80
  store ptr %9, ptr %10, align 8, !tbaa !36
  %11 = mul nsw i32 %1, %1
  %12 = zext nneg i32 %11 to i64
  %13 = shl nuw nsw i64 %12, 2
  %14 = tail call noalias ptr @malloc(i64 noundef %13) #22
  tail call void @llvm.memset.p0.i64(ptr align 1 %14, i8 -1, i64 %13, i1 false)
  %15 = getelementptr inbounds nuw i8, ptr %0, i64 88
  store ptr %14, ptr %15, align 8, !tbaa !37
  %16 = icmp sgt i32 %1, 0
  br i1 %16, label %.lr.ph37.preheader, label %._crit_edge

.lr.ph37.preheader:                               ; preds = %2
  %wide.trip.count = zext nneg i32 %1 to i64
  br label %.lr.ph37

.loopexit.loopexit:                               ; preds = %23
  %17 = trunc nsw i64 %indvars.iv.next to i32
  br label %.loopexit

.loopexit:                                        ; preds = %.loopexit.loopexit, %.lr.ph37
  %.1.lcssa = phi i32 [ %.036, %.lr.ph37 ], [ %17, %.loopexit.loopexit ]
  %indvars.iv.next39 = add nuw nsw i64 %indvars.iv38, 1
  %exitcond45.not = icmp eq i32 %18, %1
  br i1 %exitcond45.not, label %._crit_edge, label %.lr.ph37, !llvm.loop !38

.lr.ph37:                                         ; preds = %.lr.ph37.preheader, %.loopexit
  %indvars.iv38 = phi i64 [ 1, %.lr.ph37.preheader ], [ %indvars.iv.next39, %.loopexit ]
  %.036 = phi i32 [ 0, %.lr.ph37.preheader ], [ %.1.lcssa, %.loopexit ]
  %.03035 = phi i32 [ 0, %.lr.ph37.preheader ], [ %18, %.loopexit ]
  %18 = add nuw nsw i32 %.03035, 1
  %19 = icmp slt i32 %18, %1
  br i1 %19, label %.lr.ph, label %.loopexit

.lr.ph:                                           ; preds = %.lr.ph37
  %20 = mul nuw nsw i32 %1, %.03035
  %21 = sext i32 %.036 to i64
  %22 = zext nneg i32 %20 to i64
  %invariant.gep = getelementptr inbounds nuw i32, ptr %14, i64 %22
  br label %23

23:                                               ; preds = %.lr.ph, %23
  %indvars.iv40 = phi i64 [ %indvars.iv38, %.lr.ph ], [ %indvars.iv.next41, %23 ]
  %indvars.iv = phi i64 [ %21, %.lr.ph ], [ %indvars.iv.next, %23 ]
  %24 = getelementptr inbounds i32, ptr %7, i64 %indvars.iv
  store i32 %.03035, ptr %24, align 4, !tbaa !3
  %25 = getelementptr inbounds i32, ptr %9, i64 %indvars.iv
  %26 = trunc nuw nsw i64 %indvars.iv40 to i32
  store i32 %26, ptr %25, align 4, !tbaa !3
  %indvars.iv.next = add nsw i64 %indvars.iv, 1
  %gep = getelementptr inbounds nuw i32, ptr %invariant.gep, i64 %indvars.iv40
  %27 = trunc nsw i64 %indvars.iv to i32
  store i32 %27, ptr %gep, align 4, !tbaa !3
  %indvars.iv.next41 = add nuw nsw i64 %indvars.iv40, 1
  %exitcond.not = icmp eq i64 %indvars.iv.next41, %wide.trip.count
  br i1 %exitcond.not, label %.loopexit.loopexit, label %23, !llvm.loop !39

._crit_edge:                                      ; preds = %.loopexit, %2
  ret void
}